target datalayout = "e-m:e-p270:32:32-p271:32:32-p272:64:64-i64:64-i128:128-f80:128-n8:16:32:64-S128"
target triple = "x86_64-pc-linux-gnu"

%class.Scheduler = type { [200 x %"struct.Scheduler::handType"], [200 x %"struct.Scheduler::groupType"], i32, i32, %"struct.std::atomic", [6 x [200 x %"struct.Scheduler::listType"]], [200 x %"struct.Scheduler::sortType"], i32, %"class.std::vector", %"class.std::vector", %"class.std::vector", i32, i32, %"class.std::vector", %"class.std::vector.0", %class.Timer }
%"struct.Scheduler::handType" = type { i32, i32, [4 x [4 x i32]], i32, i32, i32, i32, i32, i32, i32, i32, i32, i32 }
%"struct.Scheduler::groupType" = type { i32, i32, i32, i32, i32, i32 }
%"struct.std::atomic" = type { %"struct.std::__atomic_base" }
%"struct.std::__atomic_base" = type { i32 }
%"struct.Scheduler::listType" = type { i32, i32, i32 }
%"struct.Scheduler::sortType" = type { i32, i32 }
%"class.std::vector" = type { %"struct.std::_Vector_base" }
%"struct.std::_Vector_base" = type { %"struct.std::_Vector_base<int, std::allocator<int>>::_Vector_impl" }
%"struct.std::_Vector_base<int, std::allocator<int>>::_Vector_impl" = type { %"struct.std::_Vector_base<int, std::allocator<int>>::_Vector_impl_data" }
%"struct.std::_Vector_base<int, std::allocator<int>>::_Vector_impl_data" = type { ptr, ptr, ptr }
%"class.std::vector.0" = type { %"struct.std::_Vector_base.1" }
%"struct.std::_Vector_base.1" = type { %"struct.std::_Vector_base<Timer, std::allocator<Timer>>::_Vector_impl" }
%"struct.std::_Vector_base<Timer, std::allocator<Timer>>::_Vector_impl" = type { %"struct.std::_Vector_base<Timer, std::allocator<Timer>>::_Vector_impl_data" }
%"struct.std::_Vector_base<Timer, std::allocator<Timer>>::_Vector_impl_data" = type { ptr, ptr, ptr }
%class.Timer = type { %"class.std::__cxx11::basic_string", i32, i64, i64, %"class.std::chrono::time_point", i64 }
%"class.std::__cxx11::basic_string" = type { %"struct.std::__cxx11::basic_string<char>::_Alloc_hider", i64, %union.anon }
%"struct.std::__cxx11::basic_string<char>::_Alloc_hider" = type { ptr }
%union.anon = type { i64, [8 x i8] }
%"class.std::chrono::time_point" = type { %"class.std::chrono::duration" }
%"class.std::chrono::duration" = type { i64 }

; Function Attrs: noreturn nounwind uwtable
define linkonce_odr hidden void @__clang_call_terminate(ptr noundef %0) #8 comdat {
  %2 = call ptr @__cxa_begin_catch(ptr %0) #3
  call void @_ZSt9terminatev() #12
  unreachable
}

; Function Attrs: mustprogress nounwind uwtable
define linkonce_odr noundef i32 @_ZStanSt12memory_orderSt23__memory_order_modifier(i32 noundef %0, i32 noundef %1) #5 comdat {
  %3 = alloca i32, align 4
  %4 = alloca i32, align 4
  store i32 %0, ptr %3, align 4
  store i32 %1, ptr %4, align 4
  %5 = load i32, ptr %3, align 4
  %6 = load i32, ptr %4, align 4
  %7 = and i32 %5, %6
  ret i32 %7
}

; Function Attrs: mustprogress nounwind uwtable
define linkonce_odr noundef i32 @_ZNSt13__atomic_baseIiEaSEi(ptr noundef nonnull align 4 dereferenceable(4) %0, i32 noundef %1) #5 comdat align 2 personality ptr @__gxx_personality_v0 {
  %3 = alloca ptr, align 8
  %4 = alloca i32, align 4
  %5 = alloca i32, align 4
  %6 = alloca i32, align 4
  %7 = alloca i32, align 4
  %8 = alloca ptr, align 8
  %9 = alloca i32, align 4
  store ptr %0, ptr %8, align 8
  store i32 %1, ptr %9, align 4
  %10 = load ptr, ptr %8, align 8
  %11 = load i32, ptr %9, align 4
  store ptr %10, ptr %3, align 8
  store i32 %11, ptr %4, align 4
  store i32 5, ptr %5, align 4
  %12 = load ptr, ptr %3, align 8
  %13 = load i32, ptr %5, align 4
  %14 = invoke noundef i32 @_ZStanSt12memory_orderSt23__memory_order_modifier(i32 noundef %13, i32 noundef 65535)
          to label %15 unwind label %24

15:                                               ; preds = %2
  store i32 %14, ptr %6, align 4
  %16 = load i32, ptr %5, align 4
  %17 = load i32, ptr %4, align 4
  store i32 %17, ptr %7, align 4
  switch i32 %16, label %18 [
    i32 3, label %20
    i32 5, label %22
  ]

18:                                               ; preds = %15
  %19 = load i32, ptr %7, align 4
  store atomic i32 %19, ptr %12 monotonic, align 4
  br label %27

20:                                               ; preds = %15
  %21 = load i32, ptr %7, align 4
  store atomic i32 %21, ptr %12 release, align 4
  br label %27

22:                                               ; preds = %15
  %23 = load i32, ptr %7, align 4
  store atomic i32 %23, ptr %12 seq_cst, align 4
  br label %27

24:                                               ; preds = %2
  %25 = landingpad { ptr, i32 }
          catch ptr null
  %26 = extractvalue { ptr, i32 } %25, 0
  call void @__clang_call_terminate(ptr %26) #12
  unreachable

27:                                               ; preds = %22, %20, %18
  %28 = load i32, ptr %9, align 4
  ret i32 %28
}

; Function Attrs: mustprogress nounwind uwtable
define linkonce_odr noundef nonnull align 4 dereferenceable(4) ptr @_ZNSt6vectorIiSaIiEEixEm(ptr noundef nonnull align 8 dereferenceable(24) %0, i64 noundef %1) #5 comdat align 2 {
  %3 = alloca ptr, align 8
  %4 = alloca i64, align 8
  store ptr %0, ptr %3, align 8
  store i64 %1, ptr %4, align 8
  %5 = load ptr, ptr %3, align 8
  %6 = getelementptr inbounds nuw %"struct.std::_Vector_base", ptr %5, i32 0, i32 0
  %7 = getelementptr inbounds nuw %"struct.std::_Vector_base<int, std::allocator<int>>::_Vector_impl_data", ptr %6, i32 0, i32 0
  %8 = load ptr, ptr %7, align 8
  %9 = load i64, ptr %4, align 8
  %10 = getelementptr inbounds i32, ptr %8, i64 %9
  ret ptr %10
}

; Function Attrs: mustprogress nounwind uwtable
define void @_ZN9Scheduler5ResetEv(ptr noundef nonnull align 8 dereferenceable(43416) %0) #5 align 2 {
  %2 = alloca ptr, align 8
  %3 = alloca i32, align 4
  %4 = alloca i32, align 4
  %5 = alloca i32, align 4
  %6 = alloca i32, align 4
  store ptr %0, ptr %2, align 8
  %7 = load ptr, ptr %2, align 8
  store i32 0, ptr %3, align 4
  br label %8

8:                                                ; preds = %17, %1
  %9 = load i32, ptr %3, align 4
  %10 = icmp slt i32 %9, 200
  br i1 %10, label %11, label %20

11:                                               ; preds = %8
  %12 = getelementptr inbounds nuw %class.Scheduler, ptr %7, i32 0, i32 0
  %13 = load i32, ptr %3, align 4
  %14 = sext i32 %13 to i64
  %15 = getelementptr inbounds [200 x %"struct.Scheduler::handType"], ptr %12, i64 0, i64 %14
  %16 = getelementptr inbounds nuw %"struct.Scheduler::handType", ptr %15, i32 0, i32 0
  store i32 -1, ptr %16, align 8
  br label %17

17:                                               ; preds = %11
  %18 = load i32, ptr %3, align 4
  %19 = add nsw i32 %18, 1
  store i32 %19, ptr %3, align 4
  br label %8, !llvm.loop !6

20:                                               ; preds = %8
  %21 = getelementptr inbounds nuw %class.Scheduler, ptr %7, i32 0, i32 2
  store i32 0, ptr %21, align 8
  %22 = getelementptr inbounds nuw %class.Scheduler, ptr %7, i32 0, i32 3
  store i32 0, ptr %22, align 4
  store i32 0, ptr %4, align 4
  br label %23

23:                                               ; preds = %43, %20
  %24 = load i32, ptr %4, align 4
  %25 = icmp slt i32 %24, 6
  br i1 %25, label %26, label %46

26:                                               ; preds = %23
  store i32 0, ptr %5, align 4
  br label %27

27:                                               ; preds = %39, %26
  %28 = load i32, ptr %5, align 4
  %29 = icmp slt i32 %28, 200
  br i1 %29, label %30, label %42

30:                                               ; preds = %27
  %31 = getelementptr inbounds nuw %class.Scheduler, ptr %7, i32 0, i32 5
  %32 = load i32, ptr %4, align 4
  %33 = sext i32 %32 to i64
  %34 = getelementptr inbounds [6 x [200 x %"struct.Scheduler::listType"]], ptr %31, i64 0, i64 %33
  %35 = load i32, ptr %5, align 4
  %36 = sext i32 %35 to i64
  %37 = getelementptr inbounds [200 x %"struct.Scheduler::listType"], ptr %34, i64 0, i64 %36
  %38 = getelementptr inbounds nuw %"struct.Scheduler::listType", ptr %37, i32 0, i32 0
  store i32 -1, ptr %38, align 4
  br label %39

39:                                               ; preds = %30
  %40 = load i32, ptr %5, align 4
  %41 = add nsw i32 %40, 1
  store i32 %41, ptr %5, align 4
  br label %27, !llvm.loop !7

42:                                               ; preds = %27
  br label %43

43:                                               ; preds = %42
  %44 = load i32, ptr %4, align 4
  %45 = add nsw i32 %44, 1
  store i32 %45, ptr %4, align 4
  br label %23, !llvm.loop !8

46:                                               ; preds = %23
  store i32 0, ptr %6, align 4
  br label %47

47:                                               ; preds = %61, %46
  %48 = load i32, ptr %6, align 4
  %49 = getelementptr inbounds nuw %class.Scheduler, ptr %7, i32 0, i32 11
  %50 = load i32, ptr %49, align 8
  %51 = icmp ult i32 %48, %50
  br i1 %51, label %52, label %64

52:                                               ; preds = %47
  %53 = getelementptr inbounds nuw %class.Scheduler, ptr %7, i32 0, i32 8
  %54 = load i32, ptr %6, align 4
  %55 = zext i32 %54 to i64
  %56 = call noundef nonnull align 4 dereferenceable(4) ptr @_ZNSt6vectorIiSaIiEEixEm(ptr noundef nonnull align 8 dereferenceable(24) %53, i64 noundef %55) #3
  store i32 -1, ptr %56, align 4
  %57 = getelementptr inbounds nuw %class.Scheduler, ptr %7, i32 0, i32 9
  %58 = load i32, ptr %6, align 4
  %59 = zext i32 %58 to i64
  %60 = call noundef nonnull align 4 dereferenceable(4) ptr @_ZNSt6vectorIiSaIiEEixEm(ptr noundef nonnull align 8 dereferenceable(24) %57, i64 noundef %59) #3
  store i32 -1, ptr %60, align 4
  br label %61

61:                                               ; preds = %52
  %62 = load i32, ptr %6, align 4
  %63 = add i32 %62, 1
  store i32 %63, ptr %6, align 4
  br label %47, !llvm.loop !9

64:                                               ; preds = %47
  %65 = getelementptr inbounds nuw %class.Scheduler, ptr %7, i32 0, i32 4
  %66 = call noundef i32 @_ZNSt13__atomic_baseIiEaSEi(ptr noundef nonnull align 4 dereferenceable(4) %65, i32 noundef -1) #3
  ret void
}