; Function Attrs: mustprogress nofree norecurse nounwind memory(write, argmem: readwrite, inaccessiblemem: none) uwtable
define void @_ZN9Scheduler5ResetEv(ptr nocapture noundef nonnull align 8 dereferenceable(43416) %0) local_unnamed_addr #5 align 2 personality ptr @__gxx_personality_v0 {
  br label %2

2:                                                ; preds = %1, %2
  %indvars.iv = phi i64 [ 0, %1 ], [ %indvars.iv.next, %2 ]
  %3 = getelementptr inbounds [200 x %"struct.Scheduler::handType"], ptr %0, i64 0, i64 %indvars.iv
  store i32 -1, ptr %3, align 8
  %indvars.iv.next = add nuw nsw i64 %indvars.iv, 1
  %exitcond.not = icmp eq i64 %indvars.iv.next, 200
  br i1 %exitcond.not, label %4, label %2, !llvm.loop !7

4:                                                ; preds = %2
  %5 = getelementptr inbounds nuw i8, ptr %0, i64 27200
  store i32 0, ptr %5, align 8
  %6 = getelementptr inbounds nuw i8, ptr %0, i64 27204
  store i32 0, ptr %6, align 4
  %7 = getelementptr inbounds nuw i8, ptr %0, i64 27212
  br label %.preheader16

.preheader16:                                     ; preds = %4, %14
  %indvars.iv26 = phi i64 [ 0, %4 ], [ %indvars.iv.next27, %14 ]
  br label %12

.preheader:                                       ; preds = %14
  %8 = getelementptr inbounds nuw i8, ptr %0, i64 43288
  %9 = load i32, ptr %8, align 8
  %.not = icmp eq i32 %9, 0
  br i1 %.not, label %._crit_edge, label %.lr.ph

.lr.ph:                                           ; preds = %.preheader
  %10 = getelementptr inbounds nuw i8, ptr %0, i64 43216
  %11 = getelementptr inbounds nuw i8, ptr %0, i64 43240
  br label %15

12:                                               ; preds = %.preheader16, %12
  %indvars.iv22 = phi i64 [ 0, %.preheader16 ], [ %indvars.iv.next23, %12 ]
  %13 = getelementptr inbounds [6 x [200 x %"struct.Scheduler::listType"]], ptr %7, i64 0, i64 %indvars.iv26, i64 %indvars.iv22
  store i32 -1, ptr %13, align 4
  %indvars.iv.next23 = add nuw nsw i64 %indvars.iv22, 1
  %exitcond25.not = icmp eq i64 %indvars.iv.next23, 200
  br i1 %exitcond25.not, label %14, label %12, !llvm.loop !8

14:                                               ; preds = %12
  %indvars.iv.next27 = add nuw nsw i64 %indvars.iv26, 1
  %exitcond29.not = icmp eq i64 %indvars.iv.next27, 6
  br i1 %exitcond29.not, label %.preheader, label %.preheader16, !llvm.loop !9

15:                                               ; preds = %.lr.ph, %15
  %indvars.iv30 = phi i64 [ 0, %.lr.ph ], [ %indvars.iv.next31, %15 ]
  %16 = load ptr, ptr %10, align 8
  %17 = getelementptr inbounds i32, ptr %16, i64 %indvars.iv30
  store i32 -1, ptr %17, align 4
  %18 = load ptr, ptr %11, align 8
  %19 = getelementptr inbounds i32, ptr %18, i64 %indvars.iv30
  store i32 -1, ptr %19, align 4
  %indvars.iv.next31 = add nuw nsw i64 %indvars.iv30, 1
  %20 = load i32, ptr %8, align 8
  %21 = zext i32 %20 to i64
  %22 = icmp ult i64 %indvars.iv.next31, %21
  br i1 %22, label %15, label %._crit_edge, !llvm.loop !10

._crit_edge:                                      ; preds = %15, %.preheader
  %23 = getelementptr inbounds nuw i8, ptr %0, i64 27208
  store atomic i32 -1, ptr %23 seq_cst, align 8
  ret void
}